target datalayout = "e-m:e-p270:32:32-p271:32:32-p272:64:64-i64:64-i128:128-f80:128-n8:16:32:64-S128"
target triple = "x86_64-pc-linux-gnu"

; Function Attrs: inlinehint nounwind sspstrong willreturn memory(none) uwtable
define internal zeroext i1 @RB_NIL_P(i64 noundef %0) #5 {
  %2 = alloca i64, align 8
  store i64 %0, ptr %2, align 8, !tbaa !6
  %3 = load i64, ptr %2, align 8, !tbaa !6
  %4 = icmp eq i64 %3, 4
  ret i1 %4
}

; Function Attrs: nounwind sspstrong uwtable
define internal i64 @rb_gzreader_each_char(i64 noundef %0) #0 {
  %2 = alloca i64, align 8
  %3 = alloca i64, align 8
  %4 = alloca i64, align 8
  %5 = alloca i32, align 4
  store i64 %0, ptr %3, align 8, !tbaa !6
  call void @llvm.lifetime.start.p0(i64 8, ptr %4) #23
  br label %6

6:                                                ; preds = %1
  %7 = call i32 @rb_block_given_p()
  %8 = icmp ne i32 %7, 0
  br i1 %8, label %14, label %9

9:                                                ; preds = %6
  %10 = load i64, ptr %3, align 8, !tbaa !6
  %11 = call i64 @rb_frame_this_func()
  %12 = call i64 @rb_id2sym(i64 noundef %11)
  %13 = call i64 @rb_enumeratorize_with_size(i64 noundef %10, i64 noundef %12, i32 noundef 0, ptr noundef null, ptr noundef null)
  store i64 %13, ptr %2, align 8
  store i32 1, ptr %5, align 4
  br label %26

14:                                               ; preds = %6
  br label %15

15:                                               ; preds = %14
  br label %16

16:                                               ; preds = %15
  br label %17

17:                                               ; preds = %22, %16
  %18 = load i64, ptr %3, align 8, !tbaa !6
  %19 = call i64 @rb_gzreader_getc(i64 noundef %18)
  store i64 %19, ptr %4, align 8, !tbaa !6
  %20 = call zeroext i1 @RB_NIL_P(i64 noundef %19) #24
  %21 = xor i1 %20, true
  br i1 %21, label %22, label %25

22:                                               ; preds = %17
  %23 = load i64, ptr %4, align 8, !tbaa !6
  %24 = call i64 @rb_yield(i64 noundef %23)
  br label %17, !llvm.loop !71

25:                                               ; preds = %17
  store i64 4, ptr %2, align 8
  store i32 1, ptr %5, align 4
  br label %26

26:                                               ; preds = %25, %9
  call void @llvm.lifetime.end.p0(i64 8, ptr %4) #23
  %27 = load i64, ptr %2, align 8
  ret i64 %27
}