; Function Attrs: nounwind sspstrong uwtable
define internal i64 @rb_gzreader_each_char(i64 noundef %0) #0 {
  %2 = tail call i32 @rb_block_given_p() #18
  %.not = icmp eq i32 %2, 0
  br i1 %.not, label %5, label %.preheader

.preheader:                                       ; preds = %1
  %3 = tail call i64 @rb_gzreader_getc(i64 noundef %0)
  %4 = icmp eq i64 %3, 4
  br i1 %4, label %.loopexit, label %.lr.ph

5:                                                ; preds = %1
  %6 = tail call i64 @rb_frame_this_func() #18
  %7 = tail call i64 @rb_id2sym(i64 noundef %6) #18
  %8 = tail call i64 @rb_enumeratorize_with_size(i64 noundef %0, i64 noundef %7, i32 noundef 0, ptr noundef null, ptr noundef null) #18
  br label %.loopexit

.lr.ph:                                           ; preds = %.preheader, %.lr.ph
  %9 = phi i64 [ %11, %.lr.ph ], [ %3, %.preheader ]
  %10 = tail call i64 @rb_yield(i64 noundef %9) #18
  %11 = tail call i64 @rb_gzreader_getc(i64 noundef %0)
  %12 = icmp eq i64 %11, 4
  br i1 %12, label %.loopexit, label %.lr.ph, !llvm.loop !188

.loopexit:                                        ; preds = %.lr.ph, %.preheader, %5
  %.0 = phi i64 [ %8, %5 ], [ 4, %.preheader ], [ 4, %.lr.ph ]
  ret i64 %.0
}